target datalayout = "e-m:e-p270:32:32-p271:32:32-p272:64:64-i64:64-i128:128-f80:128-n8:16:32:64-S128"
target triple = "x86_64-pc-linux-gnu"

%struct.DdManager = type { %struct.DdNode, ptr, ptr, ptr, ptr, ptr, ptr, ptr, i32, i32, double, double, double, i32, i32, i32, i32, i32, i32, ptr, ptr, %struct.DdSubtable, i32, i32, i32, i32, i32, i32, i32, double, i32, i32, i32, ptr, i64, double, i32, ptr, ptr, ptr, ptr, ptr, ptr, ptr, i32, ptr, ptr, ptr, ptr, ptr, ptr, i32, i32, i32, double, i32, i32, i32, i32, double, double, i32, i32, i32, i32, i32, i32, i32, i32, i32, ptr, ptr, i32, i32, i32, i32, i32, i32, ptr, ptr, ptr, ptr, ptr, ptr, ptr, ptr, i32, i64, i64, i64, i32, i64, i64, double, double, double, double, double, double, i32, ptr, ptr, i64 }
%struct.DdNode = type { i32, i32, ptr, %union.anon, i64 }
%union.anon = type { %struct.DdChildren }
%struct.DdChildren = type { ptr, ptr }
%struct.DdSubtable = type { ptr, i32, i32, i32, i32, i32, i32, i32, i32, i32, i32, i32 }

; Function Attrs: nounwind uwtable
define internal ptr @extraTransferPermute(ptr noundef %0, ptr noundef %1, ptr noundef %2, ptr noundef %3) #0 {
  %5 = alloca ptr, align 8
  %6 = alloca ptr, align 8
  %7 = alloca ptr, align 8
  %8 = alloca ptr, align 8
  %9 = alloca ptr, align 8
  %10 = alloca ptr, align 8
  %11 = alloca ptr, align 8
  %12 = alloca ptr, align 8
  %13 = alloca ptr, align 8
  %14 = alloca ptr, align 8
  %15 = alloca i32, align 4
  store ptr %0, ptr %6, align 8, !tbaa !3
  store ptr %1, ptr %7, align 8, !tbaa !3
  store ptr %2, ptr %8, align 8, !tbaa !8
  store ptr %3, ptr %9, align 8, !tbaa !10
  call void @llvm.lifetime.start.p0(i64 8, ptr %10) #10
  call void @llvm.lifetime.start.p0(i64 8, ptr %11) #10
  store ptr null, ptr %11, align 8, !tbaa !30
  call void @llvm.lifetime.start.p0(i64 8, ptr %12) #10
  store ptr null, ptr %12, align 8, !tbaa !32
  call void @llvm.lifetime.start.p0(i64 8, ptr %13) #10
  call void @llvm.lifetime.start.p0(i64 8, ptr %14) #10
  %16 = call ptr @st__init_table(ptr noundef @st__ptrcmp, ptr noundef @st__ptrhash)
  store ptr %16, ptr %11, align 8, !tbaa !30
  %17 = load ptr, ptr %11, align 8, !tbaa !30
  %18 = icmp eq ptr %17, null
  br i1 %18, label %19, label %20

19:                                               ; preds = %4
  br label %66

20:                                               ; preds = %4
  %21 = load ptr, ptr %6, align 8, !tbaa !3
  %22 = load ptr, ptr %7, align 8, !tbaa !3
  %23 = load ptr, ptr %8, align 8, !tbaa !8
  %24 = load ptr, ptr %11, align 8, !tbaa !30
  %25 = load ptr, ptr %9, align 8, !tbaa !10
  %26 = call ptr @extraTransferPermuteRecur(ptr noundef %21, ptr noundef %22, ptr noundef %23, ptr noundef %24, ptr noundef %25)
  store ptr %26, ptr %10, align 8, !tbaa !8
  %27 = load ptr, ptr %10, align 8, !tbaa !8
  %28 = icmp ne ptr %27, null
  br i1 %28, label %29, label %37

29:                                               ; preds = %20
  %30 = load ptr, ptr %10, align 8, !tbaa !8
  %31 = ptrtoint ptr %30 to i64
  %32 = and i64 %31, -2
  %33 = inttoptr i64 %32 to ptr
  %34 = getelementptr inbounds nuw %struct.DdNode, ptr %33, i32 0, i32 1
  %35 = load i32, ptr %34, align 4, !tbaa !34
  %36 = add i32 %35, 1
  store i32 %36, ptr %34, align 4, !tbaa !34
  br label %37

37:                                               ; preds = %29, %20
  %38 = load ptr, ptr %11, align 8, !tbaa !30
  %39 = call ptr @st__init_gen(ptr noundef %38)
  store ptr %39, ptr %12, align 8, !tbaa !32
  %40 = load ptr, ptr %12, align 8, !tbaa !32
  %41 = icmp eq ptr %40, null
  br i1 %41, label %42, label %43

42:                                               ; preds = %37
  br label %66

43:                                               ; preds = %37
  br label %44

44:                                               ; preds = %48, %43
  %45 = load ptr, ptr %12, align 8, !tbaa !32
  %46 = call i32 @st__gen(ptr noundef %45, ptr noundef %13, ptr noundef %14)
  %47 = icmp ne i32 %46, 0
  br i1 %47, label %48, label %51

48:                                               ; preds = %44
  %49 = load ptr, ptr %7, align 8, !tbaa !3
  %50 = load ptr, ptr %14, align 8, !tbaa !8
  call void @Cudd_RecursiveDeref(ptr noundef %49, ptr noundef %50)
  br label %44, !llvm.loop !35

51:                                               ; preds = %44
  %52 = load ptr, ptr %12, align 8, !tbaa !32
  call void @st__free_gen(ptr noundef %52)
  store ptr null, ptr %12, align 8, !tbaa !32
  %53 = load ptr, ptr %11, align 8, !tbaa !30
  call void @st__free_table(ptr noundef %53)
  store ptr null, ptr %11, align 8, !tbaa !30
  %54 = load ptr, ptr %10, align 8, !tbaa !8
  %55 = icmp ne ptr %54, null
  br i1 %55, label %56, label %64

56:                                               ; preds = %51
  %57 = load ptr, ptr %10, align 8, !tbaa !8
  %58 = ptrtoint ptr %57 to i64
  %59 = and i64 %58, -2
  %60 = inttoptr i64 %59 to ptr
  %61 = getelementptr inbounds nuw %struct.DdNode, ptr %60, i32 0, i32 1
  %62 = load i32, ptr %61, align 4, !tbaa !34
  %63 = add i32 %62, -1
  store i32 %63, ptr %61, align 4, !tbaa !34
  br label %64

64:                                               ; preds = %56, %51
  %65 = load ptr, ptr %10, align 8, !tbaa !8
  store ptr %65, ptr %5, align 8
  store i32 1, ptr %15, align 4
  br label %77

66:                                               ; preds = %42, %19
  %67 = load ptr, ptr %11, align 8, !tbaa !30
  %68 = icmp ne ptr %67, null
  br i1 %68, label %69, label %71

69:                                               ; preds = %66
  %70 = load ptr, ptr %11, align 8, !tbaa !30
  call void @st__free_table(ptr noundef %70)
  br label %71

71:                                               ; preds = %69, %66
  %72 = load ptr, ptr %12, align 8, !tbaa !32
  %73 = icmp ne ptr %72, null
  br i1 %73, label %74, label %76

74:                                               ; preds = %71
  %75 = load ptr, ptr %12, align 8, !tbaa !32
  call void @st__free_gen(ptr noundef %75)
  br label %76

76:                                               ; preds = %74, %71
  store ptr null, ptr %5, align 8
  store i32 1, ptr %15, align 4
  br label %77

77:                                               ; preds = %76, %64
  call void @llvm.lifetime.end.p0(i64 8, ptr %14) #10
  call void @llvm.lifetime.end.p0(i64 8, ptr %13) #10
  call void @llvm.lifetime.end.p0(i64 8, ptr %12) #10
  call void @llvm.lifetime.end.p0(i64 8, ptr %11) #10
  call void @llvm.lifetime.end.p0(i64 8, ptr %10) #10
  %78 = load ptr, ptr %5, align 8
  ret ptr %78
}

; Function Attrs: nounwind uwtable
define ptr @Extra_TransferPermute(ptr noundef %0, ptr noundef %1, ptr noundef %2, ptr noundef %3) #0 {
  %5 = alloca ptr, align 8
  %6 = alloca ptr, align 8
  %7 = alloca ptr, align 8
  %8 = alloca ptr, align 8
  %9 = alloca ptr, align 8
  store ptr %0, ptr %5, align 8, !tbaa !3
  store ptr %1, ptr %6, align 8, !tbaa !3
  store ptr %2, ptr %7, align 8, !tbaa !8
  store ptr %3, ptr %8, align 8, !tbaa !10
  call void @llvm.lifetime.start.p0(i64 8, ptr %9) #10
  br label %10

10:                                               ; preds = %18, %4
  %11 = load ptr, ptr %6, align 8, !tbaa !3
  %12 = getelementptr inbounds nuw %struct.DdManager, ptr %11, i32 0, i32 55
  store i32 0, ptr %12, align 8, !tbaa !12
  %13 = load ptr, ptr %5, align 8, !tbaa !3
  %14 = load ptr, ptr %6, align 8, !tbaa !3
  %15 = load ptr, ptr %7, align 8, !tbaa !8
  %16 = load ptr, ptr %8, align 8, !tbaa !10
  %17 = call ptr @extraTransferPermute(ptr noundef %13, ptr noundef %14, ptr noundef %15, ptr noundef %16)
  store ptr %17, ptr %9, align 8, !tbaa !8
  br label %18

18:                                               ; preds = %10
  %19 = load ptr, ptr %6, align 8, !tbaa !3
  %20 = getelementptr inbounds nuw %struct.DdManager, ptr %19, i32 0, i32 55
  %21 = load i32, ptr %20, align 8, !tbaa !12
  %22 = icmp eq i32 %21, 1
  br i1 %22, label %10, label %23, !llvm.loop !28

23:                                               ; preds = %18
  %24 = load ptr, ptr %9, align 8, !tbaa !8
  call void @llvm.lifetime.end.p0(i64 8, ptr %9) #10
  ret ptr %24
}