; Function Attrs: nounwind uwtable
define ptr @Extra_TransferPermute(ptr noundef %0, ptr noundef initializes((448, 452)) %1, ptr noundef %2, ptr noundef %3) local_unnamed_addr #0 {
  %5 = alloca ptr, align 8
  %6 = alloca ptr, align 8
  %7 = getelementptr inbounds nuw i8, ptr %1, i64 448
  br label %8

8:                                                ; preds = %extraTransferPermute.exit, %4
  store i32 0, ptr %7, align 8, !tbaa !3
  call void @llvm.lifetime.start.p0(i64 8, ptr nonnull %5) #19
  call void @llvm.lifetime.start.p0(i64 8, ptr nonnull %6) #19
  %9 = call ptr @st__init_table(ptr noundef nonnull @st__ptrcmp, ptr noundef nonnull @st__ptrhash) #19
  %cond.i = icmp eq ptr %9, null
  br i1 %cond.i, label %extraTransferPermute.exit, label %10

10:                                               ; preds = %8
  %11 = call fastcc ptr @extraTransferPermuteRecur(ptr noundef %0, ptr noundef nonnull %1, ptr noundef %2, ptr noundef %9, ptr noundef %3)
  %.not.i = icmp eq ptr %11, null
  br i1 %.not.i, label %19, label %12

12:                                               ; preds = %10
  %13 = ptrtoint ptr %11 to i64
  %14 = and i64 %13, -2
  %15 = inttoptr i64 %14 to ptr
  %16 = getelementptr inbounds nuw i8, ptr %15, i64 4
  %17 = load i32, ptr %16, align 4, !tbaa !24
  %18 = add i32 %17, 1
  store i32 %18, ptr %16, align 4, !tbaa !24
  br label %19

19:                                               ; preds = %12, %10
  %20 = call ptr @st__init_gen(ptr noundef nonnull %9) #19
  %21 = icmp eq ptr %20, null
  br i1 %21, label %32, label %.preheader.i

.preheader.i:                                     ; preds = %19
  %22 = call i32 @st__gen(ptr noundef nonnull %20, ptr noundef nonnull %5, ptr noundef nonnull %6) #19
  %.not2729.i = icmp eq i32 %22, 0
  br i1 %.not2729.i, label %._crit_edge.i, label %.lr.ph.i

.lr.ph.i:                                         ; preds = %.preheader.i, %.lr.ph.i
  %23 = load ptr, ptr %6, align 8, !tbaa !25
  call void @Cudd_RecursiveDeref(ptr noundef nonnull %1, ptr noundef %23) #19
  %24 = call i32 @st__gen(ptr noundef nonnull %20, ptr noundef nonnull %5, ptr noundef nonnull %6) #19
  %.not27.i = icmp eq i32 %24, 0
  br i1 %.not27.i, label %._crit_edge.i, label %.lr.ph.i, !llvm.loop !26

._crit_edge.i:                                    ; preds = %.lr.ph.i, %.preheader.i
  call void @st__free_gen(ptr noundef nonnull %20) #19
  call void @st__free_table(ptr noundef nonnull %9) #19
  br i1 %.not.i, label %extraTransferPermute.exit, label %25

25:                                               ; preds = %._crit_edge.i
  %26 = ptrtoint ptr %11 to i64
  %27 = and i64 %26, -2
  %28 = inttoptr i64 %27 to ptr
  %29 = getelementptr inbounds nuw i8, ptr %28, i64 4
  %30 = load i32, ptr %29, align 4, !tbaa !24
  %31 = add i32 %30, -1
  store i32 %31, ptr %29, align 4, !tbaa !24
  br label %extraTransferPermute.exit

32:                                               ; preds = %19
  call void @st__free_table(ptr noundef nonnull %9) #19
  br label %extraTransferPermute.exit

extraTransferPermute.exit:                        ; preds = %8, %._crit_edge.i, %25, %32
  %.022.i = phi ptr [ %11, %25 ], [ null, %._crit_edge.i ], [ null, %32 ], [ null, %8 ]
  call void @llvm.lifetime.end.p0(i64 8, ptr nonnull %6) #19
  call void @llvm.lifetime.end.p0(i64 8, ptr nonnull %5) #19
  %33 = load i32, ptr %7, align 8, !tbaa !3
  %34 = icmp eq i32 %33, 1
  br i1 %34, label %8, label %35, !llvm.loop !28

35:                                               ; preds = %extraTransferPermute.exit
  ret ptr %.022.i
}